target datalayout = "e-m:e-p270:32:32-p271:32:32-p272:64:64-i64:64-i128:128-f80:128-n8:16:32:64-S128"
target triple = "x86_64-pc-linux-gnu"

%struct._bt_uuid_t = type { ptr, ptr }

@.str.4527 = private unnamed_addr constant [20 x i8] c"UUID can't be empty\00", align 1
@.str.4528 = private unnamed_addr constant [25 x i8] c"UUID Name can't be empty\00", align 1

; Function Attrs: nounwind uwtable
define internal zeroext i1 @bt_uuids_update_cb(ptr noundef %0, ptr noundef %1) #1 {
  %3 = alloca i1, align 1
  %4 = alloca ptr, align 8
  %5 = alloca ptr, align 8
  %6 = alloca ptr, align 8
  store ptr %0, ptr %4, align 8
  store ptr %1, ptr %5, align 8
  %7 = load ptr, ptr %4, align 8
  store ptr %7, ptr %6, align 8
  %8 = load ptr, ptr %6, align 8
  %9 = getelementptr inbounds %struct._bt_uuid_t, ptr %8, i32 0, i32 0
  %10 = load ptr, ptr %9, align 8
  %11 = icmp eq ptr %10, null
  br i1 %11, label %12, label %15

12:                                               ; preds = %2
  %13 = call noalias ptr @g_strdup(ptr noundef @.str.4527)
  %14 = load ptr, ptr %5, align 8
  store ptr %13, ptr %14, align 8
  store i1 false, ptr %3, align 1
  br label %57

15:                                               ; preds = %2
  %16 = load ptr, ptr %6, align 8
  %17 = getelementptr inbounds %struct._bt_uuid_t, ptr %16, i32 0, i32 0
  %18 = load ptr, ptr %17, align 8
  %19 = call ptr @g_strchug(ptr noundef %18)
  %20 = call ptr @g_strchomp(ptr noundef %19)
  %21 = load ptr, ptr %6, align 8
  %22 = getelementptr inbounds %struct._bt_uuid_t, ptr %21, i32 0, i32 0
  %23 = load ptr, ptr %22, align 8
  %24 = getelementptr i8, ptr %23, i64 0
  %25 = load i8, ptr %24, align 1
  %26 = sext i8 %25 to i32
  %27 = icmp eq i32 %26, 0
  br i1 %27, label %28, label %31

28:                                               ; preds = %15
  %29 = call noalias ptr @g_strdup(ptr noundef @.str.4527)
  %30 = load ptr, ptr %5, align 8
  store ptr %29, ptr %30, align 8
  store i1 false, ptr %3, align 1
  br label %57

31:                                               ; preds = %15
  %32 = load ptr, ptr %6, align 8
  %33 = getelementptr inbounds %struct._bt_uuid_t, ptr %32, i32 0, i32 1
  %34 = load ptr, ptr %33, align 8
  %35 = icmp eq ptr %34, null
  br i1 %35, label %36, label %39

36:                                               ; preds = %31
  %37 = call noalias ptr @g_strdup(ptr noundef @.str.4528)
  %38 = load ptr, ptr %5, align 8
  store ptr %37, ptr %38, align 8
  store i1 false, ptr %3, align 1
  br label %57

39:                                               ; preds = %31
  %40 = load ptr, ptr %6, align 8
  %41 = getelementptr inbounds %struct._bt_uuid_t, ptr %40, i32 0, i32 1
  %42 = load ptr, ptr %41, align 8
  %43 = call ptr @g_strchug(ptr noundef %42)
  %44 = call ptr @g_strchomp(ptr noundef %43)
  %45 = load ptr, ptr %6, align 8
  %46 = getelementptr inbounds %struct._bt_uuid_t, ptr %45, i32 0, i32 1
  %47 = load ptr, ptr %46, align 8
  %48 = getelementptr i8, ptr %47, i64 0
  %49 = load i8, ptr %48, align 1
  %50 = sext i8 %49 to i32
  %51 = icmp eq i32 %50, 0
  br i1 %51, label %52, label %55

52:                                               ; preds = %39
  %53 = call noalias ptr @g_strdup(ptr noundef @.str.4528)
  %54 = load ptr, ptr %5, align 8
  store ptr %53, ptr %54, align 8
  store i1 false, ptr %3, align 1
  br label %57

55:                                               ; preds = %39
  %56 = load ptr, ptr %5, align 8
  store ptr null, ptr %56, align 8
  store i1 true, ptr %3, align 1
  br label %57

57:                                               ; preds = %55, %52, %36, %28, %12
  %58 = load i1, ptr %3, align 1
  ret i1 %58
}