; Function Attrs: nounwind uwtable
define internal noundef zeroext i1 @bt_uuids_update_cb(ptr noundef readonly captures(none) %0, ptr noundef writeonly captures(none) initializes((0, 8)) %1) #1 {
  %3 = load ptr, ptr %0, align 8
  %4 = icmp eq ptr %3, null
  br i1 %4, label %.sink.split, label %5

5:                                                ; preds = %2
  %6 = tail call ptr @g_strchug(ptr noundef nonnull %3) #9
  %7 = tail call ptr @g_strchomp(ptr noundef %6) #9
  %8 = load ptr, ptr %0, align 8
  %9 = load i8, ptr %8, align 1
  %10 = icmp eq i8 %9, 0
  br i1 %10, label %.sink.split, label %11

11:                                               ; preds = %5
  %12 = getelementptr inbounds nuw i8, ptr %0, i64 8
  %13 = load ptr, ptr %12, align 8
  %14 = icmp eq ptr %13, null
  br i1 %14, label %.sink.split, label %15

15:                                               ; preds = %11
  %16 = tail call ptr @g_strchug(ptr noundef nonnull %13) #9
  %17 = tail call ptr @g_strchomp(ptr noundef %16) #9
  %18 = load ptr, ptr %12, align 8
  %19 = load i8, ptr %18, align 1
  %20 = icmp eq i8 %19, 0
  br i1 %20, label %.sink.split, label %22

.sink.split:                                      ; preds = %15, %11, %5, %2
  %.str.4528.sink = phi ptr [ @.str.4527, %2 ], [ @.str.4527, %5 ], [ @.str.4528, %11 ], [ @.str.4528, %15 ]
  %21 = tail call noalias ptr @g_strdup(ptr noundef nonnull %.str.4528.sink) #9
  br label %22

22:                                               ; preds = %.sink.split, %15
  %.sink = phi ptr [ null, %15 ], [ %21, %.sink.split ]
  %.0 = phi i1 [ true, %15 ], [ false, %.sink.split ]
  store ptr %.sink, ptr %1, align 8
  ret i1 %.0
}